target datalayout = "e-m:e-p270:32:32-p271:32:32-p272:64:64-i64:64-i128:128-f80:128-n8:16:32:64-S128"
target triple = "x86_64-pc-linux-gnu"

%struct.Abc_Ntk_t_ = type { i32, i32, ptr, ptr, ptr, ptr, ptr, ptr, ptr, ptr, ptr, ptr, ptr, [11 x i32], i32, i32, i32, i32, ptr, i32, ptr, ptr, i32, i32, i32, double, i32, %struct.Vec_Int_t_, ptr, ptr, ptr, ptr, ptr, float, i32, ptr, ptr, ptr, ptr, ptr, ptr, ptr, ptr, ptr, ptr, ptr, ptr, ptr, ptr, ptr, ptr, ptr, ptr, ptr, ptr, ptr, ptr }
%struct.Vec_Int_t_ = type { i32, i32, ptr }
%struct.Abc_Obj_t_ = type { ptr, ptr, i32, i32, %struct.Vec_Int_t_, %struct.Vec_Int_t_, %union.anon, %union.anon.0 }
%union.anon = type { ptr }
%union.anon.0 = type { ptr }

@.str.9 = private unnamed_addr constant [24 x i8] c"Node %s should be among\00", align 1
@.str.10 = private unnamed_addr constant [27 x i8] c" the fanins of node %s...\0A\00", align 1

; Function Attrs: inlinehint nounwind uwtable
define internal i32 @Abc_NtkHasBdd(ptr noundef %0) #6 {
  %2 = alloca ptr, align 8
  store ptr %0, ptr %2, align 8, !tbaa !3
  %3 = load ptr, ptr %2, align 8, !tbaa !3
  %4 = getelementptr inbounds nuw %struct.Abc_Ntk_t_, ptr %3, i32 0, i32 1
  %5 = load i32, ptr %4, align 4, !tbaa !55
  %6 = icmp eq i32 %5, 2
  %7 = zext i1 %6 to i32
  ret i32 %7
}

; Function Attrs: inlinehint nounwind uwtable
define internal i32 @Abc_NtkHasAig(ptr noundef %0) #6 {
  %2 = alloca ptr, align 8
  store ptr %0, ptr %2, align 8, !tbaa !3
  %3 = load ptr, ptr %2, align 8, !tbaa !3
  %4 = getelementptr inbounds nuw %struct.Abc_Ntk_t_, ptr %3, i32 0, i32 1
  %5 = load i32, ptr %4, align 4, !tbaa !55
  %6 = icmp eq i32 %5, 3
  %7 = zext i1 %6 to i32
  ret i32 %7
}

; Function Attrs: inlinehint nounwind uwtable
define internal i32 @Abc_NtkHasSop(ptr noundef %0) #6 {
  %2 = alloca ptr, align 8
  store ptr %0, ptr %2, align 8, !tbaa !3
  %3 = load ptr, ptr %2, align 8, !tbaa !3
  %4 = getelementptr inbounds nuw %struct.Abc_Ntk_t_, ptr %3, i32 0, i32 1
  %5 = load i32, ptr %4, align 4, !tbaa !55
  %6 = icmp eq i32 %5, 1
  %7 = zext i1 %6 to i32
  ret i32 %7
}

; Function Attrs: inlinehint nounwind uwtable
define internal i32 @Vec_IntFind(ptr noundef %0, i32 noundef %1) #6 {
  %3 = alloca i32, align 4
  %4 = alloca ptr, align 8
  %5 = alloca i32, align 4
  %6 = alloca i32, align 4
  %7 = alloca i32, align 4
  store ptr %0, ptr %4, align 8, !tbaa !83
  store i32 %1, ptr %5, align 4, !tbaa !8
  call void @llvm.lifetime.start.p0(i64 4, ptr %6) #9
  store i32 0, ptr %6, align 4, !tbaa !8
  br label %8

8:                                                ; preds = %27, %2
  %9 = load i32, ptr %6, align 4, !tbaa !8
  %10 = load ptr, ptr %4, align 8, !tbaa !83
  %11 = getelementptr inbounds nuw %struct.Vec_Int_t_, ptr %10, i32 0, i32 1
  %12 = load i32, ptr %11, align 4, !tbaa !84
  %13 = icmp slt i32 %9, %12
  br i1 %13, label %14, label %30

14:                                               ; preds = %8
  %15 = load ptr, ptr %4, align 8, !tbaa !83
  %16 = getelementptr inbounds nuw %struct.Vec_Int_t_, ptr %15, i32 0, i32 2
  %17 = load ptr, ptr %16, align 8, !tbaa !85
  %18 = load i32, ptr %6, align 4, !tbaa !8
  %19 = sext i32 %18 to i64
  %20 = getelementptr inbounds i32, ptr %17, i64 %19
  %21 = load i32, ptr %20, align 4, !tbaa !8
  %22 = load i32, ptr %5, align 4, !tbaa !8
  %23 = icmp eq i32 %21, %22
  br i1 %23, label %24, label %26

24:                                               ; preds = %14
  %25 = load i32, ptr %6, align 4, !tbaa !8
  store i32 %25, ptr %3, align 4
  store i32 1, ptr %7, align 4
  br label %31

26:                                               ; preds = %14
  br label %27

27:                                               ; preds = %26
  %28 = load i32, ptr %6, align 4, !tbaa !8
  %29 = add nsw i32 %28, 1
  store i32 %29, ptr %6, align 4, !tbaa !8
  br label %8, !llvm.loop !86

30:                                               ; preds = %8
  store i32 -1, ptr %3, align 4
  store i32 1, ptr %7, align 4
  br label %31

31:                                               ; preds = %30, %24
  call void @llvm.lifetime.end.p0(i64 4, ptr %6) #9
  %32 = load i32, ptr %3, align 4
  ret i32 %32
}

; Function Attrs: nounwind uwtable
define void @Abc_NodeComplementInput(ptr noundef %0, ptr noundef %1) #0 {
  %3 = alloca ptr, align 8
  %4 = alloca ptr, align 8
  %5 = alloca i32, align 4
  %6 = alloca i32, align 4
  %7 = alloca ptr, align 8
  %8 = alloca ptr, align 8
  %9 = alloca ptr, align 8
  %10 = alloca ptr, align 8
  store ptr %0, ptr %3, align 8, !tbaa !26
  store ptr %1, ptr %4, align 8, !tbaa !26
  call void @llvm.lifetime.start.p0(i64 4, ptr %5) #9
  %11 = load ptr, ptr %3, align 8, !tbaa !26
  %12 = getelementptr inbounds nuw %struct.Abc_Obj_t_, ptr %11, i32 0, i32 4
  %13 = load ptr, ptr %4, align 8, !tbaa !26
  %14 = getelementptr inbounds nuw %struct.Abc_Obj_t_, ptr %13, i32 0, i32 2
  %15 = load i32, ptr %14, align 8, !tbaa !30
  %16 = call i32 @Vec_IntFind(ptr noundef %12, i32 noundef %15)
  store i32 %16, ptr %5, align 4, !tbaa !8
  %17 = icmp eq i32 %16, -1
  br i1 %17, label %18, label %25

18:                                               ; preds = %2
  %19 = load ptr, ptr %4, align 8, !tbaa !26
  %20 = call ptr @Abc_ObjName(ptr noundef %19)
  %21 = call i32 (ptr, ...) @printf(ptr noundef @.str.9, ptr noundef %20)
  %22 = load ptr, ptr %3, align 8, !tbaa !26
  %23 = call ptr @Abc_ObjName(ptr noundef %22)
  %24 = call i32 (ptr, ...) @printf(ptr noundef @.str.10, ptr noundef %23)
  store i32 1, ptr %6, align 4
  br label %109

25:                                               ; preds = %2
  %26 = load ptr, ptr %3, align 8, !tbaa !26
  %27 = getelementptr inbounds nuw %struct.Abc_Obj_t_, ptr %26, i32 0, i32 0
  %28 = load ptr, ptr %27, align 8, !tbaa !28
  %29 = call i32 @Abc_NtkHasSop(ptr noundef %28)
  %30 = icmp ne i32 %29, 0
  br i1 %30, label %31, label %36

31:                                               ; preds = %25
  %32 = load ptr, ptr %3, align 8, !tbaa !26
  %33 = getelementptr inbounds nuw %struct.Abc_Obj_t_, ptr %32, i32 0, i32 6
  %34 = load ptr, ptr %33, align 8, !tbaa !42
  %35 = load i32, ptr %5, align 4, !tbaa !8
  call void @Abc_SopComplementVar(ptr noundef %34, i32 noundef %35)
  br label %108

36:                                               ; preds = %25
  %37 = load ptr, ptr %3, align 8, !tbaa !26
  %38 = getelementptr inbounds nuw %struct.Abc_Obj_t_, ptr %37, i32 0, i32 0
  %39 = load ptr, ptr %38, align 8, !tbaa !28
  %40 = call i32 @Abc_NtkHasAig(ptr noundef %39)
  %41 = icmp ne i32 %40, 0
  br i1 %41, label %42, label %55

42:                                               ; preds = %36
  %43 = load ptr, ptr %3, align 8, !tbaa !26
  %44 = getelementptr inbounds nuw %struct.Abc_Obj_t_, ptr %43, i32 0, i32 0
  %45 = load ptr, ptr %44, align 8, !tbaa !28
  %46 = getelementptr inbounds nuw %struct.Abc_Ntk_t_, ptr %45, i32 0, i32 30
  %47 = load ptr, ptr %46, align 8, !tbaa !52
  %48 = load ptr, ptr %3, align 8, !tbaa !26
  %49 = getelementptr inbounds nuw %struct.Abc_Obj_t_, ptr %48, i32 0, i32 6
  %50 = load ptr, ptr %49, align 8, !tbaa !42
  %51 = load i32, ptr %5, align 4, !tbaa !8
  %52 = call ptr @Hop_Complement(ptr noundef %47, ptr noundef %50, i32 noundef %51)
  %53 = load ptr, ptr %3, align 8, !tbaa !26
  %54 = getelementptr inbounds nuw %struct.Abc_Obj_t_, ptr %53, i32 0, i32 6
  store ptr %52, ptr %54, align 8, !tbaa !42
  br label %107

55:                                               ; preds = %36
  %56 = load ptr, ptr %3, align 8, !tbaa !26
  %57 = getelementptr inbounds nuw %struct.Abc_Obj_t_, ptr %56, i32 0, i32 0
  %58 = load ptr, ptr %57, align 8, !tbaa !28
  %59 = call i32 @Abc_NtkHasBdd(ptr noundef %58)
  %60 = icmp ne i32 %59, 0
  br i1 %60, label %61, label %105

61:                                               ; preds = %55
  call void @llvm.lifetime.start.p0(i64 8, ptr %7) #9
  %62 = load ptr, ptr %3, align 8, !tbaa !26
  %63 = getelementptr inbounds nuw %struct.Abc_Obj_t_, ptr %62, i32 0, i32 0
  %64 = load ptr, ptr %63, align 8, !tbaa !28
  %65 = getelementptr inbounds nuw %struct.Abc_Ntk_t_, ptr %64, i32 0, i32 30
  %66 = load ptr, ptr %65, align 8, !tbaa !52
  store ptr %66, ptr %7, align 8, !tbaa !79
  call void @llvm.lifetime.start.p0(i64 8, ptr %8) #9
  call void @llvm.lifetime.start.p0(i64 8, ptr %9) #9
  call void @llvm.lifetime.start.p0(i64 8, ptr %10) #9
  %67 = load ptr, ptr %7, align 8, !tbaa !79
  %68 = load i32, ptr %5, align 4, !tbaa !8
  %69 = call ptr @Cudd_bddIthVar(ptr noundef %67, i32 noundef %68)
  store ptr %69, ptr %8, align 8, !tbaa !81
  %70 = load ptr, ptr %7, align 8, !tbaa !79
  %71 = load ptr, ptr %3, align 8, !tbaa !26
  %72 = getelementptr inbounds nuw %struct.Abc_Obj_t_, ptr %71, i32 0, i32 6
  %73 = load ptr, ptr %72, align 8, !tbaa !42
  %74 = load ptr, ptr %8, align 8, !tbaa !81
  %75 = ptrtoint ptr %74 to i64
  %76 = xor i64 %75, 1
  %77 = inttoptr i64 %76 to ptr
  %78 = call ptr @Cudd_Cofactor(ptr noundef %70, ptr noundef %73, ptr noundef %77)
  store ptr %78, ptr %9, align 8, !tbaa !81
  %79 = load ptr, ptr %9, align 8, !tbaa !81
  call void @Cudd_Ref(ptr noundef %79)
  %80 = load ptr, ptr %7, align 8, !tbaa !79
  %81 = load ptr, ptr %3, align 8, !tbaa !26
  %82 = getelementptr inbounds nuw %struct.Abc_Obj_t_, ptr %81, i32 0, i32 6
  %83 = load ptr, ptr %82, align 8, !tbaa !42
  %84 = load ptr, ptr %8, align 8, !tbaa !81
  %85 = call ptr @Cudd_Cofactor(ptr noundef %80, ptr noundef %83, ptr noundef %84)
  store ptr %85, ptr %10, align 8, !tbaa !81
  %86 = load ptr, ptr %10, align 8, !tbaa !81
  call void @Cudd_Ref(ptr noundef %86)
  %87 = load ptr, ptr %7, align 8, !tbaa !79
  %88 = load ptr, ptr %3, align 8, !tbaa !26
  %89 = getelementptr inbounds nuw %struct.Abc_Obj_t_, ptr %88, i32 0, i32 6
  %90 = load ptr, ptr %89, align 8, !tbaa !42
  call void @Cudd_RecursiveDeref(ptr noundef %87, ptr noundef %90)
  %91 = load ptr, ptr %7, align 8, !tbaa !79
  %92 = load ptr, ptr %8, align 8, !tbaa !81
  %93 = load ptr, ptr %9, align 8, !tbaa !81
  %94 = load ptr, ptr %10, align 8, !tbaa !81
  %95 = call ptr @Cudd_bddIte(ptr noundef %91, ptr noundef %92, ptr noundef %93, ptr noundef %94)
  %96 = load ptr, ptr %3, align 8, !tbaa !26
  %97 = getelementptr inbounds nuw %struct.Abc_Obj_t_, ptr %96, i32 0, i32 6
  store ptr %95, ptr %97, align 8, !tbaa !42
  %98 = load ptr, ptr %3, align 8, !tbaa !26
  %99 = getelementptr inbounds nuw %struct.Abc_Obj_t_, ptr %98, i32 0, i32 6
  %100 = load ptr, ptr %99, align 8, !tbaa !42
  call void @Cudd_Ref(ptr noundef %100)
  %101 = load ptr, ptr %7, align 8, !tbaa !79
  %102 = load ptr, ptr %9, align 8, !tbaa !81
  call void @Cudd_RecursiveDeref(ptr noundef %101, ptr noundef %102)
  %103 = load ptr, ptr %7, align 8, !tbaa !79
  %104 = load ptr, ptr %10, align 8, !tbaa !81
  call void @Cudd_RecursiveDeref(ptr noundef %103, ptr noundef %104)
  call void @llvm.lifetime.end.p0(i64 8, ptr %10) #9
  call void @llvm.lifetime.end.p0(i64 8, ptr %9) #9
  call void @llvm.lifetime.end.p0(i64 8, ptr %8) #9
  call void @llvm.lifetime.end.p0(i64 8, ptr %7) #9
  br label %106

105:                                              ; preds = %55
  br label %106

106:                                              ; preds = %105, %61
  br label %107

107:                                              ; preds = %106, %42
  br label %108

108:                                              ; preds = %107, %31
  store i32 0, ptr %6, align 4
  br label %109

109:                                              ; preds = %108, %18
  call void @llvm.lifetime.end.p0(i64 4, ptr %5) #9
  %110 = load i32, ptr %6, align 4
  switch i32 %110, label %112 [
    i32 0, label %111
    i32 1, label %111
  ]

111:                                              ; preds = %109, %109
  ret void

112:                                              ; preds = %109
  unreachable
}