; Function Attrs: nounwind uwtable
define void @Abc_NodeComplementInput(ptr noundef %0, ptr noundef %1) local_unnamed_addr #0 {
  %3 = getelementptr inbounds nuw i8, ptr %1, i64 16
  %4 = load i32, ptr %3, align 8, !tbaa !27
  %5 = getelementptr inbounds nuw i8, ptr %0, i64 28
  %6 = load i32, ptr %5, align 4, !tbaa !73
  %7 = icmp sgt i32 %6, 0
  br i1 %7, label %.lr.ph.i, label %Vec_IntFind.exit.thread

.lr.ph.i:                                         ; preds = %2
  %8 = getelementptr inbounds nuw i8, ptr %0, i64 32
  %9 = load ptr, ptr %8, align 8, !tbaa !74
  %wide.trip.count.i = zext nneg i32 %6 to i64
  br label %10

10:                                               ; preds = %14, %.lr.ph.i
  %indvars.iv.i = phi i64 [ 0, %.lr.ph.i ], [ %indvars.iv.next.i, %14 ]
  %11 = getelementptr inbounds nuw i32, ptr %9, i64 %indvars.iv.i
  %12 = load i32, ptr %11, align 4, !tbaa !37
  %13 = icmp eq i32 %12, %4
  br i1 %13, label %Vec_IntFind.exit, label %14

14:                                               ; preds = %10
  %indvars.iv.next.i = add nuw nsw i64 %indvars.iv.i, 1
  %exitcond.not.i = icmp eq i64 %indvars.iv.next.i, %wide.trip.count.i
  br i1 %exitcond.not.i, label %Vec_IntFind.exit.thread, label %10, !llvm.loop !75

Vec_IntFind.exit:                                 ; preds = %10
  %15 = trunc nuw nsw i64 %indvars.iv.i to i32
  %16 = load ptr, ptr %0, align 8, !tbaa !24
  %17 = getelementptr i8, ptr %16, i64 4
  %.val37 = load i32, ptr %17, align 4, !tbaa !51
  switch i32 %.val37, label %45 [
    i32 1, label %22
    i32 3, label %25
    i32 2, label %31
  ]

Vec_IntFind.exit.thread:                          ; preds = %14, %2
  %18 = tail call ptr @Abc_ObjName(ptr noundef %1) #10
  %19 = tail call i32 (ptr, ...) @printf(ptr noundef nonnull dereferenceable(1) @.str.9, ptr noundef %18)
  %20 = tail call ptr @Abc_ObjName(ptr noundef %0) #10
  %21 = tail call i32 (ptr, ...) @printf(ptr noundef nonnull dereferenceable(1) @.str.10, ptr noundef %20)
  br label %45

22:                                               ; preds = %Vec_IntFind.exit
  %23 = getelementptr inbounds nuw i8, ptr %0, i64 56
  %24 = load ptr, ptr %23, align 8, !tbaa !43
  tail call void @Abc_SopComplementVar(ptr noundef %24, i32 noundef %15) #10
  br label %45

25:                                               ; preds = %Vec_IntFind.exit
  %26 = getelementptr inbounds nuw i8, ptr %16, i64 256
  %27 = load ptr, ptr %26, align 8, !tbaa !52
  %28 = getelementptr inbounds nuw i8, ptr %0, i64 56
  %29 = load ptr, ptr %28, align 8, !tbaa !43
  %30 = tail call ptr @Hop_Complement(ptr noundef %27, ptr noundef %29, i32 noundef %15) #10
  store ptr %30, ptr %28, align 8, !tbaa !43
  br label %45

31:                                               ; preds = %Vec_IntFind.exit
  %32 = getelementptr inbounds nuw i8, ptr %16, i64 256
  %33 = load ptr, ptr %32, align 8, !tbaa !52
  %34 = tail call ptr @Cudd_bddIthVar(ptr noundef %33, i32 noundef %15) #10
  %35 = getelementptr inbounds nuw i8, ptr %0, i64 56
  %36 = load ptr, ptr %35, align 8, !tbaa !43
  %37 = ptrtoint ptr %34 to i64
  %38 = xor i64 %37, 1
  %39 = inttoptr i64 %38 to ptr
  %40 = tail call ptr @Cudd_Cofactor(ptr noundef %33, ptr noundef %36, ptr noundef %39) #10
  tail call void @Cudd_Ref(ptr noundef %40) #10
  %41 = load ptr, ptr %35, align 8, !tbaa !43
  %42 = tail call ptr @Cudd_Cofactor(ptr noundef %33, ptr noundef %41, ptr noundef %34) #10
  tail call void @Cudd_Ref(ptr noundef %42) #10
  %43 = load ptr, ptr %35, align 8, !tbaa !43
  tail call void @Cudd_RecursiveDeref(ptr noundef %33, ptr noundef %43) #10
  %44 = tail call ptr @Cudd_bddIte(ptr noundef %33, ptr noundef %34, ptr noundef %40, ptr noundef %42) #10
  store ptr %44, ptr %35, align 8, !tbaa !43
  tail call void @Cudd_Ref(ptr noundef %44) #10
  tail call void @Cudd_RecursiveDeref(ptr noundef %33, ptr noundef %40) #10
  tail call void @Cudd_RecursiveDeref(ptr noundef %33, ptr noundef %42) #10
  br label %45

45:                                               ; preds = %Vec_IntFind.exit, %22, %31, %25, %Vec_IntFind.exit.thread
  ret void
}